; Function Attrs: mustprogress uwtable
define dso_local void @_ZNK19cmCMakePresetsGraph24PrintConfigurePresetListEPNS_21PrintPrecedingNewlineE(ptr noundef nonnull align 8 dereferenceable(528) %0, ptr noundef %1) local_unnamed_addr #3 align 2 personality ptr @__gxx_personality_v0 {
  %3 = alloca %"class.std::function", align 8
  %4 = getelementptr inbounds i8, ptr %3, i64 16
  %5 = getelementptr inbounds i8, ptr %3, i64 24
  call void @llvm.memset.p0.i64(ptr noundef nonnull align 8 dereferenceable(16) %3, i8 0, i64 16, i1 false)
  store ptr @"_ZNSt17_Function_handlerIFbRKN19cmCMakePresetsGraph15ConfigurePresetEEZNKS0_24PrintConfigurePresetListEPNS0_21PrintPrecedingNewlineEE3$_0E9_M_invokeERKSt9_Any_dataS3_", ptr %5, align 8
  store ptr @"_ZNSt17_Function_handlerIFbRKN19cmCMakePresetsGraph15ConfigurePresetEEZNKS0_24PrintConfigurePresetListEPNS0_21PrintPrecedingNewlineEE3$_0E10_M_managerERSt9_Any_dataRKS9_St18_Manager_operation", ptr %4, align 8
  invoke void @_ZNK19cmCMakePresetsGraph24PrintConfigurePresetListERKSt8functionIFbRKNS_15ConfigurePresetEEEPNS_21PrintPrecedingNewlineE(ptr noundef nonnull align 8 dereferenceable(528) %0, ptr noundef nonnull align 8 dereferenceable(32) %3, ptr noundef %1)
          to label %6 unwind label %13

6:                                                ; preds = %2
  %7 = load ptr, ptr %4, align 8
  %.not.i.i = icmp eq ptr %7, null
  br i1 %.not.i.i, label %_ZNSt8functionIFbRKN19cmCMakePresetsGraph15ConfigurePresetEEED2Ev.exit, label %8

8:                                                ; preds = %6
  %9 = invoke noundef zeroext i1 %7(ptr noundef nonnull align 8 dereferenceable(16) %3, ptr noundef nonnull align 8 dereferenceable(16) %3, i32 noundef 3)
          to label %_ZNSt8functionIFbRKN19cmCMakePresetsGraph15ConfigurePresetEEED2Ev.exit unwind label %10

10:                                               ; preds = %8
  %11 = landingpad { ptr, i32 }
          catch ptr null
  %12 = extractvalue { ptr, i32 } %11, 0
  call void @__clang_call_terminate(ptr %12) #23
  unreachable

_ZNSt8functionIFbRKN19cmCMakePresetsGraph15ConfigurePresetEEED2Ev.exit: ; preds = %6, %8
  ret void

13:                                               ; preds = %2
  %14 = landingpad { ptr, i32 }
          cleanup
  %15 = load ptr, ptr %4, align 8
  %.not.i.i3 = icmp eq ptr %15, null
  br i1 %.not.i.i3, label %_ZNSt8functionIFbRKN19cmCMakePresetsGraph15ConfigurePresetEEED2Ev.exit4, label %16

16:                                               ; preds = %13
  %17 = invoke noundef zeroext i1 %15(ptr noundef nonnull align 8 dereferenceable(16) %3, ptr noundef nonnull align 8 dereferenceable(16) %3, i32 noundef 3)
          to label %_ZNSt8functionIFbRKN19cmCMakePresetsGraph15ConfigurePresetEEED2Ev.exit4 unwind label %18

18:                                               ; preds = %16
  %19 = landingpad { ptr, i32 }
          catch ptr null
  %20 = extractvalue { ptr, i32 } %19, 0
  call void @__clang_call_terminate(ptr %20) #23
  unreachable

_ZNSt8functionIFbRKN19cmCMakePresetsGraph15ConfigurePresetEEED2Ev.exit4: ; preds = %13, %16
  resume { ptr, i32 } %14
}